target datalayout = "e-m:e-p270:32:32-p271:32:32-p272:64:64-i64:64-i128:128-f80:128-n8:16:32:64-S128"
target triple = "x86_64-pc-linux-gnu"

@dOSSL = global i64 0, align 8
@.str.8 = private unnamed_addr constant [7 x i8] c"(null)\00", align 1
@.str.9 = private unnamed_addr constant [6 x i8] c" (%s)\00", align 1
@.str.10 = private unnamed_addr constant [39 x i8] c"error on stack: error:%08lX:%s:%s:%s%s\00", align 1
@.str.11 = private unnamed_addr constant [1 x i8] zeroinitializer, align 1

; Function Attrs: nounwind sspstrong uwtable
define void @ossl_clear_error() #0 {
  %1 = alloca i64, align 8
  %2 = alloca ptr, align 8
  %3 = alloca ptr, align 8
  %4 = alloca ptr, align 8
  %5 = alloca ptr, align 8
  %6 = alloca ptr, align 8
  %7 = alloca [256 x i8], align 16
  %8 = alloca i32, align 4
  %9 = alloca i32, align 4
  %10 = load i64, ptr @dOSSL, align 8, !tbaa !6
  %11 = icmp eq i64 %10, 20
  br i1 %11, label %12, label %57

12:                                               ; preds = %0
  call void @llvm.lifetime.start.p0(i64 8, ptr %1) #22
  call void @llvm.lifetime.start.p0(i64 8, ptr %2) #22
  call void @llvm.lifetime.start.p0(i64 8, ptr %3) #22
  call void @llvm.lifetime.start.p0(i64 8, ptr %4) #22
  call void @llvm.lifetime.start.p0(i64 8, ptr %5) #22
  call void @llvm.lifetime.start.p0(i64 8, ptr %6) #22
  call void @llvm.lifetime.start.p0(i64 256, ptr %7) #22
  call void @llvm.memset.p0.i64(ptr align 16 %7, i8 0, i64 256, i1 false)
  call void @llvm.lifetime.start.p0(i64 4, ptr %8) #22
  call void @llvm.lifetime.start.p0(i64 4, ptr %9) #22
  br label %13

13:                                               ; preds = %53, %12
  %14 = call i64 @ERR_get_error_all(ptr noundef %2, ptr noundef %8, ptr noundef %4, ptr noundef %3, ptr noundef %9)
  store i64 %14, ptr %1, align 8, !tbaa !6
  %15 = icmp ne i64 %14, 0
  br i1 %15, label %16, label %56

16:                                               ; preds = %13
  %17 = load i64, ptr %1, align 8, !tbaa !6
  %18 = call ptr @ERR_lib_error_string(i64 noundef %17)
  store ptr %18, ptr %5, align 8, !tbaa !19
  %19 = load i64, ptr %1, align 8, !tbaa !6
  %20 = call ptr @ERR_reason_error_string(i64 noundef %19)
  store ptr %20, ptr %6, align 8, !tbaa !19
  %21 = load i32, ptr %9, align 4, !tbaa !13
  %22 = and i32 %21, 2
  %23 = icmp ne i32 %22, 0
  br i1 %23, label %24, label %32

24:                                               ; preds = %16
  %25 = load ptr, ptr %3, align 8, !tbaa !19
  %26 = icmp ne ptr %25, null
  br i1 %26, label %28, label %27

27:                                               ; preds = %24
  store ptr @.str.8, ptr %3, align 8, !tbaa !19
  br label %28

28:                                               ; preds = %27, %24
  %29 = getelementptr inbounds [256 x i8], ptr %7, i64 0, i64 0
  %30 = load ptr, ptr %3, align 8, !tbaa !19
  %31 = call i32 (ptr, i64, ptr, ...) @ruby_snprintf(ptr noundef %29, i64 noundef 256, ptr noundef @.str.9, ptr noundef %30)
  br label %32

32:                                               ; preds = %28, %16
  %33 = load i64, ptr %1, align 8, !tbaa !6
  %34 = load ptr, ptr %5, align 8, !tbaa !19
  %35 = icmp ne ptr %34, null
  br i1 %35, label %36, label %38

36:                                               ; preds = %32
  %37 = load ptr, ptr %5, align 8, !tbaa !19
  br label %39

38:                                               ; preds = %32
  br label %39

39:                                               ; preds = %38, %36
  %40 = phi ptr [ %37, %36 ], [ @.str.11, %38 ]
  %41 = load ptr, ptr %4, align 8, !tbaa !19
  %42 = icmp ne ptr %41, null
  br i1 %42, label %43, label %45

43:                                               ; preds = %39
  %44 = load ptr, ptr %4, align 8, !tbaa !19
  br label %46

45:                                               ; preds = %39
  br label %46

46:                                               ; preds = %45, %43
  %47 = phi ptr [ %44, %43 ], [ @.str.11, %45 ]
  %48 = load ptr, ptr %6, align 8, !tbaa !19
  %49 = icmp ne ptr %48, null
  br i1 %49, label %50, label %52

50:                                               ; preds = %46
  %51 = load ptr, ptr %6, align 8, !tbaa !19
  br label %53

52:                                               ; preds = %46
  br label %53

53:                                               ; preds = %52, %50
  %54 = phi ptr [ %51, %50 ], [ @.str.11, %52 ]
  %55 = getelementptr inbounds [256 x i8], ptr %7, i64 0, i64 0
  call void (ptr, ...) @rb_warn(ptr noundef @.str.10, i64 noundef %33, ptr noundef %40, ptr noundef %47, ptr noundef %54, ptr noundef %55) #28
  br label %13, !llvm.loop !42

56:                                               ; preds = %13
  call void @llvm.lifetime.end.p0(i64 4, ptr %9) #22
  call void @llvm.lifetime.end.p0(i64 4, ptr %8) #22
  call void @llvm.lifetime.end.p0(i64 256, ptr %7) #22
  call void @llvm.lifetime.end.p0(i64 8, ptr %6) #22
  call void @llvm.lifetime.end.p0(i64 8, ptr %5) #22
  call void @llvm.lifetime.end.p0(i64 8, ptr %4) #22
  call void @llvm.lifetime.end.p0(i64 8, ptr %3) #22
  call void @llvm.lifetime.end.p0(i64 8, ptr %2) #22
  call void @llvm.lifetime.end.p0(i64 8, ptr %1) #22
  br label %58

57:                                               ; preds = %0
  call void @ERR_clear_error()
  br label %58

58:                                               ; preds = %57, %56
  ret void
}