; Function Attrs: nounwind sspstrong uwtable
define void @ossl_clear_error() local_unnamed_addr #0 {
  %1 = alloca ptr, align 8
  %2 = alloca ptr, align 8
  %3 = alloca ptr, align 8
  %4 = alloca [256 x i8], align 16
  %5 = alloca i32, align 4
  %6 = alloca i32, align 4
  %7 = load i64, ptr @dOSSL, align 8, !tbaa !13
  %8 = icmp eq i64 %7, 20
  br i1 %8, label %9, label %28

9:                                                ; preds = %0
  call void @llvm.lifetime.start.p0(i64 8, ptr nonnull %1) #15
  call void @llvm.lifetime.start.p0(i64 8, ptr nonnull %2) #15
  call void @llvm.lifetime.start.p0(i64 8, ptr nonnull %3) #15
  call void @llvm.lifetime.start.p0(i64 256, ptr nonnull %4) #15
  call void @llvm.memset.p0.i64(ptr noundef nonnull align 16 dereferenceable(256) %4, i8 0, i64 256, i1 false)
  call void @llvm.lifetime.start.p0(i64 4, ptr nonnull %5) #15
  call void @llvm.lifetime.start.p0(i64 4, ptr nonnull %6) #15
  %10 = call i64 @ERR_get_error_all(ptr noundef nonnull %1, ptr noundef nonnull %5, ptr noundef nonnull %3, ptr noundef nonnull %2, ptr noundef nonnull %6) #15
  %.not11 = icmp eq i64 %10, 0
  br i1 %.not11, label %._crit_edge, label %.lr.ph

.lr.ph:                                           ; preds = %9, %22
  %11 = phi i64 [ %27, %22 ], [ %10, %9 ]
  %12 = call ptr @ERR_lib_error_string(i64 noundef %11) #15
  %13 = call ptr @ERR_reason_error_string(i64 noundef %11) #15
  %14 = load i32, ptr %6, align 4, !tbaa !17
  %15 = and i32 %14, 2
  %.not6 = icmp eq i32 %15, 0
  br i1 %.not6, label %22, label %16

16:                                               ; preds = %.lr.ph
  %17 = load ptr, ptr %2, align 8, !tbaa !38
  %.not7 = icmp eq ptr %17, null
  br i1 %.not7, label %18, label %19

18:                                               ; preds = %16
  store ptr @.str.8, ptr %2, align 8, !tbaa !38
  br label %19

19:                                               ; preds = %18, %16
  %20 = phi ptr [ @.str.8, %18 ], [ %17, %16 ]
  %21 = call i32 (ptr, i64, ptr, ...) @ruby_snprintf(ptr noundef nonnull %4, i64 noundef 256, ptr noundef nonnull @.str.9, ptr noundef nonnull %20) #15
  br label %22

22:                                               ; preds = %19, %.lr.ph
  %.not8 = icmp eq ptr %12, null
  %23 = select i1 %.not8, ptr @.str.11, ptr %12
  %24 = load ptr, ptr %3, align 8, !tbaa !38
  %.not9 = icmp eq ptr %24, null
  %25 = select i1 %.not9, ptr @.str.11, ptr %24
  %.not10 = icmp eq ptr %13, null
  %26 = select i1 %.not10, ptr @.str.11, ptr %13
  call void (ptr, ...) @rb_warn(ptr noundef nonnull @.str.10, i64 noundef %11, ptr noundef nonnull %23, ptr noundef nonnull %25, ptr noundef nonnull %26, ptr noundef nonnull %4) #19
  %27 = call i64 @ERR_get_error_all(ptr noundef nonnull %1, ptr noundef nonnull %5, ptr noundef nonnull %3, ptr noundef nonnull %2, ptr noundef nonnull %6) #15
  %.not = icmp eq i64 %27, 0
  br i1 %.not, label %._crit_edge, label %.lr.ph, !llvm.loop !40

._crit_edge:                                      ; preds = %22, %9
  call void @llvm.lifetime.end.p0(i64 4, ptr nonnull %6) #15
  call void @llvm.lifetime.end.p0(i64 4, ptr nonnull %5) #15
  call void @llvm.lifetime.end.p0(i64 256, ptr nonnull %4) #15
  call void @llvm.lifetime.end.p0(i64 8, ptr nonnull %3) #15
  call void @llvm.lifetime.end.p0(i64 8, ptr nonnull %2) #15
  call void @llvm.lifetime.end.p0(i64 8, ptr nonnull %1) #15
  br label %29

28:                                               ; preds = %0
  tail call void @ERR_clear_error() #15
  br label %29

29:                                               ; preds = %28, %._crit_edge
  ret void
}